target datalayout = "e-m:e-p270:32:32-p271:32:32-p272:64:64-i64:64-i128:128-f80:128-n8:16:32:64-S128"
target triple = "x86_64-unknown-linux-gnu"

%"class.std::__cxx11::basic_string" = type { %"struct.std::__cxx11::basic_string<char>::_Alloc_hider", i64, %union.anon }
%"struct.std::__cxx11::basic_string<char>::_Alloc_hider" = type { ptr }
%union.anon = type { i64, [8 x i8] }
%"class.rocksdb::Slice" = type { ptr, i64 }
%"class.std::shared_ptr.18" = type { %"class.std::__shared_ptr.19" }
%"class.std::__shared_ptr.19" = type { ptr, %"class.std::__shared_count" }
%"class.std::__shared_count" = type { ptr }
%"class.rocksdb::CompactionJob" = type { ptr, ptr, %"struct.rocksdb::InternalStats::CompactionStatsFull", ptr, %"struct.rocksdb::MutableDBOptions", ptr, ptr, ptr, i8, i32, %"class.rocksdb::IOStatus", ptr, i32, ptr, %"class.std::__cxx11::basic_string", %"class.std::__cxx11::basic_string", %"struct.rocksdb::FileOptions", ptr, %"class.std::shared_ptr.15", %"class.rocksdb::FileSystemPtr", %"struct.rocksdb::FileOptions", ptr, ptr, ptr, ptr, ptr, ptr, ptr, %"class.std::vector.3", i64, ptr, ptr, %"class.std::shared_ptr", ptr, i8, i8, %"class.std::vector.24", i32, %"class.std::__cxx11::basic_string", %"class.std::__cxx11::basic_string", ptr, i32, ptr, ptr, %"class.rocksdb::SeqnoToTimeMapping", i64, i64 }
%"struct.rocksdb::InternalStats::CompactionStatsFull" = type { %"struct.rocksdb::InternalStats::CompactionStats", i8, [7 x i8], %"struct.rocksdb::InternalStats::CompactionStats" }
%"struct.rocksdb::InternalStats::CompactionStats" = type <{ i64, i64, i64, i64, i64, i64, i64, i64, i32, i32, i32, i32, i64, i64, i64, i32, [20 x i32], [4 x i8] }>
%"struct.rocksdb::MutableDBOptions" = type { i32, i32, i32, i8, i64, i64, i64, i64, i32, i32, i64, i32, i64, i64, i8, i64, i32, %"class.std::__cxx11::basic_string" }
%"class.rocksdb::IOStatus" = type { %"class.rocksdb::Status" }
%"class.rocksdb::Status" = type { i8, i8, i8, i8, i8, i8, %"class.std::unique_ptr" }
%"class.std::unique_ptr" = type { %"struct.std::__uniq_ptr_data" }
%"struct.std::__uniq_ptr_data" = type { %"class.std::__uniq_ptr_impl" }
%"class.std::__uniq_ptr_impl" = type { %"class.std::tuple" }
%"class.std::tuple" = type { %"struct.std::_Tuple_impl" }
%"struct.std::_Tuple_impl" = type { %"struct.std::_Head_base.9" }
%"struct.std::_Head_base.9" = type { ptr }
%"class.std::shared_ptr.15" = type { %"class.std::__shared_ptr.16" }
%"class.std::__shared_ptr.16" = type { ptr, %"class.std::__shared_count" }
%"class.rocksdb::FileSystemPtr" = type { %"class.std::shared_ptr.18", %"class.std::shared_ptr.15", %"class.std::shared_ptr.21" }
%"class.std::shared_ptr.21" = type { %"class.std::__shared_ptr.22" }
%"class.std::__shared_ptr.22" = type { ptr, %"class.std::__shared_count" }
%"struct.rocksdb::FileOptions" = type <{ %"struct.rocksdb::EnvOptions", %"struct.rocksdb::IOOptions", i8, i8, [6 x i8] }>
%"struct.rocksdb::EnvOptions" = type { i8, i8, i8, i8, i8, i8, i64, i8, i8, i64, i64, i64, ptr }
%"struct.rocksdb::IOOptions" = type <{ %"class.std::chrono::duration", i8, [3 x i8], i32, i8, [7 x i8], %"class.std::unordered_map", i8, i8, i8, [5 x i8] }>
%"class.std::chrono::duration" = type { i64 }
%"class.std::unordered_map" = type { %"class.std::_Hashtable" }
%"class.std::_Hashtable" = type { ptr, i64, %"struct.std::__detail::_Hash_node_base", i64, %"struct.std::__detail::_Prime_rehash_policy", ptr }
%"struct.std::__detail::_Hash_node_base" = type { ptr }
%"struct.std::__detail::_Prime_rehash_policy" = type { float, i64 }
%"class.std::vector.3" = type { %"struct.std::_Vector_base.4" }
%"struct.std::_Vector_base.4" = type { %"struct.std::_Vector_base<unsigned long, std::allocator<unsigned long>>::_Vector_impl" }
%"struct.std::_Vector_base<unsigned long, std::allocator<unsigned long>>::_Vector_impl" = type { %"struct.std::_Vector_base<unsigned long, std::allocator<unsigned long>>::_Vector_impl_data" }
%"struct.std::_Vector_base<unsigned long, std::allocator<unsigned long>>::_Vector_impl_data" = type { ptr, ptr, ptr }
%"class.std::shared_ptr" = type { %"class.std::__shared_ptr" }
%"class.std::__shared_ptr" = type { ptr, %"class.std::__shared_count" }
%"class.std::vector.24" = type { %"struct.std::_Vector_base.25" }
%"struct.std::_Vector_base.25" = type { %"struct.std::_Vector_base<std::__cxx11::basic_string<char>, std::allocator<std::__cxx11::basic_string<char>>>::_Vector_impl" }
%"struct.std::_Vector_base<std::__cxx11::basic_string<char>, std::allocator<std::__cxx11::basic_string<char>>>::_Vector_impl" = type { %"struct.std::_Vector_base<std::__cxx11::basic_string<char>, std::allocator<std::__cxx11::basic_string<char>>>::_Vector_impl_data" }
%"struct.std::_Vector_base<std::__cxx11::basic_string<char>, std::allocator<std::__cxx11::basic_string<char>>>::_Vector_impl_data" = type { ptr, ptr, ptr }
%"class.rocksdb::SeqnoToTimeMapping" = type <{ i64, i64, %"class.std::deque", i8, [7 x i8] }>
%"class.std::deque" = type { %"class.std::_Deque_base" }
%"class.std::_Deque_base" = type { %"struct.std::_Deque_base<rocksdb::SeqnoToTimeMapping::SeqnoTimePair, std::allocator<rocksdb::SeqnoToTimeMapping::SeqnoTimePair>>::_Deque_impl" }
%"struct.std::_Deque_base<rocksdb::SeqnoToTimeMapping::SeqnoTimePair, std::allocator<rocksdb::SeqnoToTimeMapping::SeqnoTimePair>>::_Deque_impl" = type { %"struct.std::_Deque_base<rocksdb::SeqnoToTimeMapping::SeqnoTimePair, std::allocator<rocksdb::SeqnoToTimeMapping::SeqnoTimePair>>::_Deque_impl_data" }
%"struct.std::_Deque_base<rocksdb::SeqnoToTimeMapping::SeqnoTimePair, std::allocator<rocksdb::SeqnoToTimeMapping::SeqnoTimePair>>::_Deque_impl_data" = type { ptr, i64, %"struct.std::_Deque_iterator", %"struct.std::_Deque_iterator" }
%"struct.std::_Deque_iterator" = type { ptr, ptr, ptr, ptr }
%"class.std::vector.123" = type { %"struct.std::_Vector_base.124" }
%"struct.std::_Vector_base.124" = type { %"struct.std::_Vector_base<rocksdb::BlobFileAddition, std::allocator<rocksdb::BlobFileAddition>>::_Vector_impl" }
%"struct.std::_Vector_base<rocksdb::BlobFileAddition, std::allocator<rocksdb::BlobFileAddition>>::_Vector_impl" = type { %"struct.std::_Vector_base<rocksdb::BlobFileAddition, std::allocator<rocksdb::BlobFileAddition>>::_Vector_impl_data" }
%"struct.std::_Vector_base<rocksdb::BlobFileAddition, std::allocator<rocksdb::BlobFileAddition>>::_Vector_impl_data" = type { ptr, ptr, ptr }
%"class.std::vector.161" = type { %"struct.std::_Vector_base.162" }
%"struct.std::_Vector_base.162" = type { %"struct.std::_Vector_base<rocksdb::FileMetaData *, std::allocator<rocksdb::FileMetaData *>>::_Vector_impl" }
%"struct.std::_Vector_base<rocksdb::FileMetaData *, std::allocator<rocksdb::FileMetaData *>>::_Vector_impl" = type { %"struct.std::_Vector_base<rocksdb::FileMetaData *, std::allocator<rocksdb::FileMetaData *>>::_Vector_impl_data" }
%"struct.std::_Vector_base<rocksdb::FileMetaData *, std::allocator<rocksdb::FileMetaData *>>::_Vector_impl_data" = type { ptr, ptr, ptr }
%"class.rocksdb::InternalKey" = type { %"class.std::__cxx11::basic_string" }
%"struct.rocksdb::CompactionJobStats" = type { i64, i64, i8, i64, i64, i64, i64, i64, i64, i64, i8, i8, i64, i64, i64, i64, i64, i64, i64, i64, i64, i64, i64, i64, i64, i64, %"class.std::__cxx11::basic_string", %"class.std::__cxx11::basic_string", i64, i64 }
%"class.std::optional" = type { %"struct.std::_Optional_base" }
%"struct.std::_Optional_base" = type { %"struct.std::_Optional_payload" }
%"struct.std::_Optional_payload" = type { %"struct.std::_Optional_payload_base.base", [7 x i8] }
%"struct.std::_Optional_payload_base.base" = type <{ %"union.std::_Optional_payload_base<rocksdb::Slice>::_Storage", i8 }>
%"union.std::_Optional_payload_base<rocksdb::Slice>::_Storage" = type { %"class.rocksdb::Slice" }
%"class.rocksdb::SubcompactionState" = type <{ ptr, %"class.std::optional", %"class.std::optional", %"class.rocksdb::Status", %"class.rocksdb::IOStatus", i8, [7 x i8], %"struct.rocksdb::CompactionJobStats", i32, [4 x i8], %"class.rocksdb::CompactionOutputs", %"class.rocksdb::CompactionOutputs", ptr, i8, i8, [6 x i8] }>
%"class.rocksdb::CompactionOutputs" = type { ptr, %"class.std::unique_ptr.258", %"class.std::unique_ptr.266", i64, %"class.std::vector.274", %"class.std::vector.123", %"class.std::unique_ptr.279", %"struct.rocksdb::InternalStats::CompactionOutputsStats", i8, %"class.std::unique_ptr.287", %"class.std::__cxx11::basic_string", %"class.std::unique_ptr.295", i8, ptr, %"class.std::vector.161", i32, i32, i64, i8, i64, i8, i64, %"class.rocksdb::InternalKey", %"class.std::vector.3" }
%"class.std::unique_ptr.258" = type { %"struct.std::__uniq_ptr_data.259" }
%"struct.std::__uniq_ptr_data.259" = type { %"class.std::__uniq_ptr_impl.260" }
%"class.std::__uniq_ptr_impl.260" = type { %"class.std::tuple.261" }
%"class.std::tuple.261" = type { %"struct.std::_Tuple_impl.262" }
%"struct.std::_Tuple_impl.262" = type { %"struct.std::_Head_base.265" }
%"struct.std::_Head_base.265" = type { ptr }
%"class.std::unique_ptr.266" = type { %"struct.std::__uniq_ptr_data.267" }
%"struct.std::__uniq_ptr_data.267" = type { %"class.std::__uniq_ptr_impl.268" }
%"class.std::__uniq_ptr_impl.268" = type { %"class.std::tuple.269" }
%"class.std::tuple.269" = type { %"struct.std::_Tuple_impl.270" }
%"struct.std::_Tuple_impl.270" = type { %"struct.std::_Head_base.273" }
%"struct.std::_Head_base.273" = type { ptr }
%"class.std::vector.274" = type { %"struct.std::_Vector_base.275" }
%"struct.std::_Vector_base.275" = type { %"struct.std::_Vector_base<rocksdb::CompactionOutputs::Output, std::allocator<rocksdb::CompactionOutputs::Output>>::_Vector_impl" }
%"struct.std::_Vector_base<rocksdb::CompactionOutputs::Output, std::allocator<rocksdb::CompactionOutputs::Output>>::_Vector_impl" = type { %"struct.std::_Vector_base<rocksdb::CompactionOutputs::Output, std::allocator<rocksdb::CompactionOutputs::Output>>::_Vector_impl_data" }
%"struct.std::_Vector_base<rocksdb::CompactionOutputs::Output, std::allocator<rocksdb::CompactionOutputs::Output>>::_Vector_impl_data" = type { ptr, ptr, ptr }
%"class.std::unique_ptr.279" = type { %"struct.std::__uniq_ptr_data.280" }
%"struct.std::__uniq_ptr_data.280" = type { %"class.std::__uniq_ptr_impl.281" }
%"class.std::__uniq_ptr_impl.281" = type { %"class.std::tuple.282" }
%"class.std::tuple.282" = type { %"struct.std::_Tuple_impl.283" }
%"struct.std::_Tuple_impl.283" = type { %"struct.std::_Head_base.286" }
%"struct.std::_Head_base.286" = type { ptr }
%"struct.rocksdb::InternalStats::CompactionOutputsStats" = type { i64, i64, i64, i64, i64 }
%"class.std::unique_ptr.287" = type { %"struct.std::__uniq_ptr_data.288" }
%"struct.std::__uniq_ptr_data.288" = type { %"class.std::__uniq_ptr_impl.289" }
%"class.std::__uniq_ptr_impl.289" = type { %"class.std::tuple.290" }
%"class.std::tuple.290" = type { %"struct.std::_Tuple_impl.291" }
%"struct.std::_Tuple_impl.291" = type { %"struct.std::_Head_base.294" }
%"struct.std::_Head_base.294" = type { ptr }
%"class.std::unique_ptr.295" = type { %"struct.std::__uniq_ptr_data.296" }
%"struct.std::__uniq_ptr_data.296" = type { %"class.std::__uniq_ptr_impl.297" }
%"class.std::__uniq_ptr_impl.297" = type { %"class.std::tuple.298" }
%"class.std::tuple.298" = type { %"struct.std::_Tuple_impl.299" }
%"struct.std::_Tuple_impl.299" = type { %"struct.std::_Head_base.302" }
%"struct.std::_Head_base.302" = type { ptr }

; Function Attrs: mustprogress nounwind uwtable
define noundef i64 @_ZNK7rocksdb13CompactionJob15GetCompactionIdEPNS_18SubcompactionStateE(ptr noundef nonnull align 8 dereferenceable(1456) %this, ptr noundef %sub_compact) #1 align 2 {
entry:
  %this.addr = alloca ptr, align 8
  %sub_compact.addr = alloca ptr, align 8
  store ptr %this, ptr %this.addr, align 8
  store ptr %sub_compact, ptr %sub_compact.addr, align 8
  %this1 = load ptr, ptr %this.addr, align 8
  %job_id_ = getelementptr inbounds %"class.rocksdb::CompactionJob", ptr %this1, i32 0, i32 12
  %0 = load i32, ptr %job_id_, align 8
  %conv = zext i32 %0 to i64
  %shl = shl i64 %conv, 32
  %1 = load ptr, ptr %sub_compact.addr, align 8
  %sub_job_id = getelementptr inbounds %"class.rocksdb::SubcompactionState", ptr %1, i32 0, i32 8
  %2 = load i32, ptr %sub_job_id, align 8
  %conv2 = zext i32 %2 to i64
  %or = or i64 %shl, %conv2
  ret i64 %or
}