; Function Attrs: mustprogress nofree norecurse nosync nounwind willreturn memory(argmem: read) uwtable
define noundef i64 @_ZNK7rocksdb13CompactionJob15GetCompactionIdEPNS_18SubcompactionStateE(ptr nocapture noundef nonnull readonly align 8 dereferenceable(1456) %this, ptr nocapture noundef readonly %sub_compact) local_unnamed_addr #14 align 2 {
entry:
  %job_id_ = getelementptr inbounds i8, ptr %this, i64 616
  %0 = load i32, ptr %job_id_, align 8
  %conv = zext i32 %0 to i64
  %shl = shl nuw i64 %conv, 32
  %sub_job_id = getelementptr inbounds i8, ptr %sub_compact, i64 376
  %1 = load i32, ptr %sub_job_id, align 8
  %conv2 = zext i32 %1 to i64
  %or = or disjoint i64 %shl, %conv2
  ret i64 %or
}